
kernel_clapdetector/kernel.elf:     file format elf32-littlearm


Disassembly of section .text:

00008000 <__start>:
    8000:	e10f0000 	mrs	r0, CPSR
    8004:	e321f0d2 	msr	CPSR_c, #210	; 0xd2
    8008:	e59fd034 	ldr	sp, [pc, #52]	; 8044 <hang+0x8>
    800c:	e121f000 	msr	CPSR_c, r0
    8010:	e59fd030 	ldr	sp, [pc, #48]	; 8048 <hang+0xc>
    8014:	e59f0030 	ldr	r0, [pc, #48]	; 804c <hang+0x10>
    8018:	e59f1030 	ldr	r1, [pc, #48]	; 8050 <hang+0x14>
    801c:	e3a02000 	mov	r2, #0
    8020:	e3a03000 	mov	r3, #0
    8024:	e3a04000 	mov	r4, #0
    8028:	e3a05000 	mov	r5, #0

0000802c <bss_loop>:
    802c:	e8a0003c 	stmia	r0!, {r2, r3, r4, r5}
    8030:	e1500001 	cmp	r0, r1
    8034:	3afffffc 	bcc	802c <bss_loop>
    8038:	eb0000cd 	bl	8374 <kernel_main>

0000803c <hang>:
    803c:	e320f003 	wfi
    8040:	eafffffd 	b	803c <hang>
    8044:	0012c000 	andseq	ip, r2, r0
    8048:	0011b000 	andseq	fp, r1, r0
    804c:	0000b000 	andeq	fp, r0, r0
    8050:	0000b000 	andeq	fp, r0, r0

00008054 <gpio_config>:
    8054:	e52db004 	push	{fp}		; (str fp, [sp, #-4]!)
    8058:	e28db000 	add	fp, sp, #0
    805c:	e24dd01c 	sub	sp, sp, #28
    8060:	e1a03000 	mov	r3, r0
    8064:	e1a02001 	mov	r2, r1
    8068:	e54b3015 	strb	r3, [fp, #-21]
    806c:	e1a03002 	mov	r3, r2
    8070:	e54b3016 	strb	r3, [fp, #-22]
    8074:	e55b3015 	ldrb	r3, [fp, #-21]
    8078:	e3530035 	cmp	r3, #53	; 0x35
    807c:	8a000002 	bhi	808c <gpio_config+0x38>
    8080:	e55b3016 	ldrb	r3, [fp, #-22]
    8084:	e3530007 	cmp	r3, #7
    8088:	9a000000 	bls	8090 <gpio_config+0x3c>
    808c:	ea000035 	b	8168 <gpio_config+0x114>
    8090:	e55b2015 	ldrb	r2, [fp, #-21]
    8094:	e30c3ccd 	movw	r3, #52429	; 0xcccd
    8098:	e34c3ccc 	movt	r3, #52428	; 0xcccc
    809c:	e0832392 	umull	r2, r3, r2, r3
    80a0:	e1a031a3 	lsr	r3, r3, #3
    80a4:	e6ef3073 	uxtb	r3, r3
    80a8:	e50b3008 	str	r3, [fp, #-8]
    80ac:	e30a3000 	movw	r3, #40960	; 0xa000
    80b0:	e3403000 	movt	r3, #0
    80b4:	e5932000 	ldr	r2, [r3]
    80b8:	e51b3008 	ldr	r3, [fp, #-8]
    80bc:	e1a03103 	lsl	r3, r3, #2
    80c0:	e0823003 	add	r3, r2, r3
    80c4:	e5933000 	ldr	r3, [r3]
    80c8:	e50b300c 	str	r3, [fp, #-12]
    80cc:	e55b1015 	ldrb	r1, [fp, #-21]
    80d0:	e30c3ccd 	movw	r3, #52429	; 0xcccd
    80d4:	e34c3ccc 	movt	r3, #52428	; 0xcccc
    80d8:	e0832391 	umull	r2, r3, r1, r3
    80dc:	e1a021a3 	lsr	r2, r3, #3
    80e0:	e1a03002 	mov	r3, r2
    80e4:	e1a03103 	lsl	r3, r3, #2
    80e8:	e0833002 	add	r3, r3, r2
    80ec:	e1a03083 	lsl	r3, r3, #1
    80f0:	e0633001 	rsb	r3, r3, r1
    80f4:	e6ef3073 	uxtb	r3, r3
    80f8:	e1a02003 	mov	r2, r3
    80fc:	e1a03002 	mov	r3, r2
    8100:	e1a03083 	lsl	r3, r3, #1
    8104:	e0833002 	add	r3, r3, r2
    8108:	e50b3010 	str	r3, [fp, #-16]
    810c:	e51b3010 	ldr	r3, [fp, #-16]
    8110:	e3a02007 	mov	r2, #7
    8114:	e1a03312 	lsl	r3, r2, r3
    8118:	e1e03003 	mvn	r3, r3
    811c:	e1a02003 	mov	r2, r3
    8120:	e51b300c 	ldr	r3, [fp, #-12]
    8124:	e0033002 	and	r3, r3, r2
    8128:	e50b300c 	str	r3, [fp, #-12]
    812c:	e55b2016 	ldrb	r2, [fp, #-22]
    8130:	e51b3010 	ldr	r3, [fp, #-16]
    8134:	e1a03312 	lsl	r3, r2, r3
    8138:	e1a02003 	mov	r2, r3
    813c:	e51b300c 	ldr	r3, [fp, #-12]
    8140:	e1833002 	orr	r3, r3, r2
    8144:	e50b300c 	str	r3, [fp, #-12]
    8148:	e30a3000 	movw	r3, #40960	; 0xa000
    814c:	e3403000 	movt	r3, #0
    8150:	e5932000 	ldr	r2, [r3]
    8154:	e51b3008 	ldr	r3, [fp, #-8]
    8158:	e1a03103 	lsl	r3, r3, #2
    815c:	e0823003 	add	r3, r2, r3
    8160:	e51b200c 	ldr	r2, [fp, #-12]
    8164:	e5832000 	str	r2, [r3]
    8168:	e24bd000 	sub	sp, fp, #0
    816c:	e49db004 	pop	{fp}		; (ldr fp, [sp], #4)
    8170:	e12fff1e 	bx	lr

00008174 <gpio_set>:
    8174:	e52db004 	push	{fp}		; (str fp, [sp, #-4]!)
    8178:	e28db000 	add	fp, sp, #0
    817c:	e24dd00c 	sub	sp, sp, #12
    8180:	e1a03000 	mov	r3, r0
    8184:	e54b3005 	strb	r3, [fp, #-5]
    8188:	e55b3005 	ldrb	r3, [fp, #-5]
    818c:	e3530035 	cmp	r3, #53	; 0x35
    8190:	9a000000 	bls	8198 <gpio_set+0x24>
    8194:	ea000014 	b	81ec <gpio_set+0x78>
    8198:	e55b3005 	ldrb	r3, [fp, #-5]
    819c:	e353001f 	cmp	r3, #31
    81a0:	9a000009 	bls	81cc <gpio_set+0x58>
    81a4:	e30a3000 	movw	r3, #40960	; 0xa000
    81a8:	e3403000 	movt	r3, #0
    81ac:	e5933000 	ldr	r3, [r3]
    81b0:	e2833020 	add	r3, r3, #32
    81b4:	e55b2005 	ldrb	r2, [fp, #-5]
    81b8:	e2422020 	sub	r2, r2, #32
    81bc:	e3a01001 	mov	r1, #1
    81c0:	e1a02211 	lsl	r2, r1, r2
    81c4:	e5832000 	str	r2, [r3]
    81c8:	ea000007 	b	81ec <gpio_set+0x78>
    81cc:	e30a3000 	movw	r3, #40960	; 0xa000
    81d0:	e3403000 	movt	r3, #0
    81d4:	e5933000 	ldr	r3, [r3]
    81d8:	e283301c 	add	r3, r3, #28
    81dc:	e55b2005 	ldrb	r2, [fp, #-5]
    81e0:	e3a01001 	mov	r1, #1
    81e4:	e1a02211 	lsl	r2, r1, r2
    81e8:	e5832000 	str	r2, [r3]
    81ec:	e24bd000 	sub	sp, fp, #0
    81f0:	e49db004 	pop	{fp}		; (ldr fp, [sp], #4)
    81f4:	e12fff1e 	bx	lr

000081f8 <gpio_clr>:
    81f8:	e52db004 	push	{fp}		; (str fp, [sp, #-4]!)
    81fc:	e28db000 	add	fp, sp, #0
    8200:	e24dd00c 	sub	sp, sp, #12
    8204:	e1a03000 	mov	r3, r0
    8208:	e54b3005 	strb	r3, [fp, #-5]
    820c:	e55b3005 	ldrb	r3, [fp, #-5]
    8210:	e3530035 	cmp	r3, #53	; 0x35
    8214:	9a000000 	bls	821c <gpio_clr+0x24>
    8218:	ea000014 	b	8270 <gpio_clr+0x78>
    821c:	e55b3005 	ldrb	r3, [fp, #-5]
    8220:	e353001f 	cmp	r3, #31
    8224:	9a000009 	bls	8250 <gpio_clr+0x58>
    8228:	e30a3000 	movw	r3, #40960	; 0xa000
    822c:	e3403000 	movt	r3, #0
    8230:	e5933000 	ldr	r3, [r3]
    8234:	e283302c 	add	r3, r3, #44	; 0x2c
    8238:	e55b2005 	ldrb	r2, [fp, #-5]
    823c:	e2422020 	sub	r2, r2, #32
    8240:	e3a01001 	mov	r1, #1
    8244:	e1a02211 	lsl	r2, r1, r2
    8248:	e5832000 	str	r2, [r3]
    824c:	ea000007 	b	8270 <gpio_clr+0x78>
    8250:	e30a3000 	movw	r3, #40960	; 0xa000
    8254:	e3403000 	movt	r3, #0
    8258:	e5933000 	ldr	r3, [r3]
    825c:	e2833028 	add	r3, r3, #40	; 0x28
    8260:	e55b2005 	ldrb	r2, [fp, #-5]
    8264:	e3a01001 	mov	r1, #1
    8268:	e1a02211 	lsl	r2, r1, r2
    826c:	e5832000 	str	r2, [r3]
    8270:	e24bd000 	sub	sp, fp, #0
    8274:	e49db004 	pop	{fp}		; (ldr fp, [sp], #4)
    8278:	e12fff1e 	bx	lr

0000827c <gpio_set_pull>:
    827c:	e92d4800 	push	{fp, lr}
    8280:	e28db004 	add	fp, sp, #4
    8284:	e24dd008 	sub	sp, sp, #8
    8288:	e1a03000 	mov	r3, r0
    828c:	e1a02001 	mov	r2, r1
    8290:	e54b3005 	strb	r3, [fp, #-5]
    8294:	e1a03002 	mov	r3, r2
    8298:	e54b3006 	strb	r3, [fp, #-6]
    829c:	e55b3005 	ldrb	r3, [fp, #-5]
    82a0:	e3530035 	cmp	r3, #53	; 0x35
    82a4:	8a000002 	bhi	82b4 <gpio_set_pull+0x38>
    82a8:	e55b3006 	ldrb	r3, [fp, #-6]
    82ac:	e3530002 	cmp	r3, #2
    82b0:	9a000000 	bls	82b8 <gpio_set_pull+0x3c>
    82b4:	ea00002c 	b	836c <gpio_set_pull+0xf0>
    82b8:	e30a3000 	movw	r3, #40960	; 0xa000
    82bc:	e3403000 	movt	r3, #0
    82c0:	e5933000 	ldr	r3, [r3]
    82c4:	e2833094 	add	r3, r3, #148	; 0x94
    82c8:	e55b2006 	ldrb	r2, [fp, #-6]
    82cc:	e5832000 	str	r2, [r3]
    82d0:	e3a00096 	mov	r0, #150	; 0x96
    82d4:	eb0001c9 	bl	8a00 <delay_cycles>
    82d8:	e55b3005 	ldrb	r3, [fp, #-5]
    82dc:	e353001f 	cmp	r3, #31
    82e0:	9a000011 	bls	832c <gpio_set_pull+0xb0>
    82e4:	e30a3000 	movw	r3, #40960	; 0xa000
    82e8:	e3403000 	movt	r3, #0
    82ec:	e5933000 	ldr	r3, [r3]
    82f0:	e283309c 	add	r3, r3, #156	; 0x9c
    82f4:	e55b2005 	ldrb	r2, [fp, #-5]
    82f8:	e2422020 	sub	r2, r2, #32
    82fc:	e3a01001 	mov	r1, #1
    8300:	e1a02211 	lsl	r2, r1, r2
    8304:	e5832000 	str	r2, [r3]
    8308:	e3a00096 	mov	r0, #150	; 0x96
    830c:	eb0001bb 	bl	8a00 <delay_cycles>
    8310:	e30a3000 	movw	r3, #40960	; 0xa000
    8314:	e3403000 	movt	r3, #0
    8318:	e5933000 	ldr	r3, [r3]
    831c:	e283309c 	add	r3, r3, #156	; 0x9c
    8320:	e3a02000 	mov	r2, #0
    8324:	e5832000 	str	r2, [r3]
    8328:	ea00000f 	b	836c <gpio_set_pull+0xf0>
    832c:	e30a3000 	movw	r3, #40960	; 0xa000
    8330:	e3403000 	movt	r3, #0
    8334:	e5933000 	ldr	r3, [r3]
    8338:	e2833098 	add	r3, r3, #152	; 0x98
    833c:	e55b2005 	ldrb	r2, [fp, #-5]
    8340:	e3a01001 	mov	r1, #1
    8344:	e1a02211 	lsl	r2, r1, r2
    8348:	e5832000 	str	r2, [r3]
    834c:	e3a00096 	mov	r0, #150	; 0x96
    8350:	eb0001aa 	bl	8a00 <delay_cycles>
    8354:	e30a3000 	movw	r3, #40960	; 0xa000
    8358:	e3403000 	movt	r3, #0
    835c:	e5933000 	ldr	r3, [r3]
    8360:	e2833098 	add	r3, r3, #152	; 0x98
    8364:	e3a02000 	mov	r2, #0
    8368:	e5832000 	str	r2, [r3]
    836c:	e24bd004 	sub	sp, fp, #4
    8370:	e8bd8800 	pop	{fp, pc}

00008374 <kernel_main>:
    8374:	e92d4ff8 	push	{r3, r4, r5, r6, r7, r8, r9, sl, fp, lr}
    8378:	eb0000d4 	bl	86d0 <uart_init>
    837c:	eb00016e 	bl	893c <adc_init>
    8380:	e309b01c 	movw	fp, #36892	; 0x901c
    8384:	e340b000 	movt	fp, #0
    8388:	e3098044 	movw	r8, #36932	; 0x9044
    838c:	e3408000 	movt	r8, #0
    8390:	e1a0000b 	mov	r0, fp
    8394:	eb00005f 	bl	8518 <printk>
    8398:	eb0000f7 	bl	877c <uart_get_byte>
    839c:	e3500030 	cmp	r0, #48	; 0x30
    83a0:	1a000006 	bne	83c0 <kernel_main+0x4c>
    83a4:	e3a00000 	mov	r0, #0
    83a8:	eb000167 	bl	894c <adc_read>
    83ac:	e1a01000 	mov	r1, r0
    83b0:	e3090038 	movw	r0, #36920	; 0x9038
    83b4:	e3400000 	movt	r0, #0
    83b8:	eb000056 	bl	8518 <printk>
    83bc:	eafffff3 	b	8390 <kernel_main+0x1c>
    83c0:	e3500031 	cmp	r0, #49	; 0x31
    83c4:	1afffff1 	bne	8390 <kernel_main+0x1c>
    83c8:	e3a0a0c8 	mov	sl, #200	; 0xc8
    83cc:	e3a09000 	mov	r9, #0
    83d0:	e1a0400a 	mov	r4, sl
    83d4:	e1a05009 	mov	r5, r9
    83d8:	e3a06ffa 	mov	r6, #1000	; 0x3e8
    83dc:	e3a07001 	mov	r7, #1
    83e0:	e1a00007 	mov	r0, r7
    83e4:	eb000158 	bl	894c <adc_read>
    83e8:	e1500006 	cmp	r0, r6
    83ec:	31a06000 	movcc	r6, r0
    83f0:	3a000003 	bcc	8404 <kernel_main+0x90>
    83f4:	e1500005 	cmp	r0, r5
    83f8:	31a00005 	movcc	r0, r5
    83fc:	e6ff5070 	uxth	r5, r0
    8400:	eaffffff 	b	8404 <kernel_main+0x90>
    8404:	e2544001 	subs	r4, r4, #1
    8408:	1afffff4 	bne	83e0 <kernel_main+0x6c>
    840c:	e0664005 	rsb	r4, r6, r5
    8410:	e6ff4074 	uxth	r4, r4
    8414:	e1a00008 	mov	r0, r8
    8418:	e1a01004 	mov	r1, r4
    841c:	eb00003d 	bl	8518 <printk>
    8420:	e3540ffa 	cmp	r4, #1000	; 0x3e8
    8424:	3affffe9 	bcc	83d0 <kernel_main+0x5c>
    8428:	e3090050 	movw	r0, #36944	; 0x9050
    842c:	e3400000 	movt	r0, #0
    8430:	eb000038 	bl	8518 <printk>
    8434:	eaffffd5 	b	8390 <kernel_main+0x1c>

00008438 <printnumk>:
    8438:	e92d47f0 	push	{r4, r5, r6, r7, r8, r9, sl, lr}
    843c:	e24dd008 	sub	sp, sp, #8
    8440:	e1a06002 	mov	r6, r2
    8444:	e1a07003 	mov	r7, r3
    8448:	e3500008 	cmp	r0, #8
    844c:	0a000004 	beq	8464 <printnumk+0x2c>
    8450:	e3098064 	movw	r8, #36964	; 0x9064
    8454:	e3408000 	movt	r8, #0
    8458:	e3500010 	cmp	r0, #16
    845c:	13a08000 	movne	r8, #0
    8460:	ea000001 	b	846c <printnumk+0x34>
    8464:	e3098060 	movw	r8, #36960	; 0x9060
    8468:	e3408000 	movt	r8, #0
    846c:	e28d4007 	add	r4, sp, #7
    8470:	e1a05000 	mov	r5, r0
    8474:	e3a09000 	mov	r9, #0
    8478:	e309a000 	movw	sl, #36864	; 0x9000
    847c:	e340a000 	movt	sl, #0
    8480:	e1a00006 	mov	r0, r6
    8484:	e1a01007 	mov	r1, r7
    8488:	e1a02005 	mov	r2, r5
    848c:	e1a03009 	mov	r3, r9
    8490:	eb00016b 	bl	8a44 <__aeabi_uldivmod>
    8494:	e7da3002 	ldrb	r3, [sl, r2]
    8498:	e4443001 	strb	r3, [r4], #-1
    849c:	e1a00006 	mov	r0, r6
    84a0:	e1a01007 	mov	r1, r7
    84a4:	e1a02005 	mov	r2, r5
    84a8:	e1a03009 	mov	r3, r9
    84ac:	eb000164 	bl	8a44 <__aeabi_uldivmod>
    84b0:	e1a06000 	mov	r6, r0
    84b4:	e1a07001 	mov	r7, r1
    84b8:	e1963007 	orrs	r3, r6, r7
    84bc:	1affffef 	bne	8480 <printnumk+0x48>
    84c0:	e3580000 	cmp	r8, #0
    84c4:	0a000002 	beq	84d4 <printnumk+0x9c>
    84c8:	e5d80000 	ldrb	r0, [r8]
    84cc:	e3500000 	cmp	r0, #0
    84d0:	1a000004 	bne	84e8 <printnumk+0xb0>
    84d4:	e2844001 	add	r4, r4, #1
    84d8:	e28d3008 	add	r3, sp, #8
    84dc:	e1540003 	cmp	r4, r3
    84e0:	1a000005 	bne	84fc <printnumk+0xc4>
    84e4:	ea000009 	b	8510 <printnumk+0xd8>
    84e8:	eb000099 	bl	8754 <uart_put_byte>
    84ec:	e5f80001 	ldrb	r0, [r8, #1]!
    84f0:	e3500000 	cmp	r0, #0
    84f4:	1afffffb 	bne	84e8 <printnumk+0xb0>
    84f8:	eafffff5 	b	84d4 <printnumk+0x9c>
    84fc:	e4d40001 	ldrb	r0, [r4], #1
    8500:	eb000093 	bl	8754 <uart_put_byte>
    8504:	e28d3008 	add	r3, sp, #8
    8508:	e1540003 	cmp	r4, r3
    850c:	1afffffa 	bne	84fc <printnumk+0xc4>
    8510:	e28dd008 	add	sp, sp, #8
    8514:	e8bd87f0 	pop	{r4, r5, r6, r7, r8, r9, sl, pc}

00008518 <printk>:
    8518:	e92d000f 	push	{r0, r1, r2, r3}
    851c:	e92d41f0 	push	{r4, r5, r6, r7, r8, lr}
    8520:	e24dd008 	sub	sp, sp, #8
    8524:	e59d4020 	ldr	r4, [sp, #32]
    8528:	e28d3024 	add	r3, sp, #36	; 0x24
    852c:	e58d3004 	str	r3, [sp, #4]
    8530:	e3a06000 	mov	r6, #0
    8534:	e3a08008 	mov	r8, #8
    8538:	e3a07010 	mov	r7, #16
    853c:	ea00005c 	b	86b4 <printk+0x19c>
    8540:	e3500025 	cmp	r0, #37	; 0x25
    8544:	0a000002 	beq	8554 <printk+0x3c>
    8548:	e2844001 	add	r4, r4, #1
    854c:	eb000080 	bl	8754 <uart_put_byte>
    8550:	ea000057 	b	86b4 <printk+0x19c>
    8554:	e5d43001 	ldrb	r3, [r4, #1]
    8558:	e353006f 	cmp	r3, #111	; 0x6f
    855c:	0a00002c 	beq	8614 <printk+0xfc>
    8560:	8a000006 	bhi	8580 <printk+0x68>
    8564:	e3530063 	cmp	r3, #99	; 0x63
    8568:	0a000045 	beq	8684 <printk+0x16c>
    856c:	e3530064 	cmp	r3, #100	; 0x64
    8570:	0a00000d 	beq	85ac <printk+0x94>
    8574:	e3530025 	cmp	r3, #37	; 0x25
    8578:	1a00004a 	bne	86a8 <printk+0x190>
    857c:	ea000046 	b	869c <printk+0x184>
    8580:	e3530073 	cmp	r3, #115	; 0x73
    8584:	0a000032 	beq	8654 <printk+0x13c>
    8588:	8a000002 	bhi	8598 <printk+0x80>
    858c:	e3530070 	cmp	r3, #112	; 0x70
    8590:	0a000027 	beq	8634 <printk+0x11c>
    8594:	ea000043 	b	86a8 <printk+0x190>
    8598:	e3530075 	cmp	r3, #117	; 0x75
    859c:	0a000014 	beq	85f4 <printk+0xdc>
    85a0:	e3530078 	cmp	r3, #120	; 0x78
    85a4:	0a000022 	beq	8634 <printk+0x11c>
    85a8:	ea00003e 	b	86a8 <printk+0x190>
    85ac:	e59d3004 	ldr	r3, [sp, #4]
    85b0:	e2832004 	add	r2, r3, #4
    85b4:	e58d2004 	str	r2, [sp, #4]
    85b8:	e5935000 	ldr	r5, [r3]
    85bc:	e3550000 	cmp	r5, #0
    85c0:	aa000006 	bge	85e0 <printk+0xc8>
    85c4:	e3a0002d 	mov	r0, #45	; 0x2d
    85c8:	eb000061 	bl	8754 <uart_put_byte>
    85cc:	e2652000 	rsb	r2, r5, #0
    85d0:	e3a0000a 	mov	r0, #10
    85d4:	e1a03fc2 	asr	r3, r2, #31
    85d8:	ebffff96 	bl	8438 <printnumk>
    85dc:	ea000033 	b	86b0 <printk+0x198>
    85e0:	e3a0000a 	mov	r0, #10
    85e4:	e1a02005 	mov	r2, r5
    85e8:	e1a03fc5 	asr	r3, r5, #31
    85ec:	ebffff91 	bl	8438 <printnumk>
    85f0:	ea00002e 	b	86b0 <printk+0x198>
    85f4:	e59d3004 	ldr	r3, [sp, #4]
    85f8:	e2832004 	add	r2, r3, #4
    85fc:	e58d2004 	str	r2, [sp, #4]
    8600:	e3a0000a 	mov	r0, #10
    8604:	e5932000 	ldr	r2, [r3]
    8608:	e1a03006 	mov	r3, r6
    860c:	ebffff89 	bl	8438 <printnumk>
    8610:	ea000026 	b	86b0 <printk+0x198>
    8614:	e59d3004 	ldr	r3, [sp, #4]
    8618:	e2832004 	add	r2, r3, #4
    861c:	e58d2004 	str	r2, [sp, #4]
    8620:	e1a00008 	mov	r0, r8
    8624:	e5932000 	ldr	r2, [r3]
    8628:	e1a03006 	mov	r3, r6
    862c:	ebffff81 	bl	8438 <printnumk>
    8630:	ea00001e 	b	86b0 <printk+0x198>
    8634:	e59d3004 	ldr	r3, [sp, #4]
    8638:	e2832004 	add	r2, r3, #4
    863c:	e58d2004 	str	r2, [sp, #4]
    8640:	e1a00007 	mov	r0, r7
    8644:	e5932000 	ldr	r2, [r3]
    8648:	e1a03006 	mov	r3, r6
    864c:	ebffff79 	bl	8438 <printnumk>
    8650:	ea000016 	b	86b0 <printk+0x198>
    8654:	e59d3004 	ldr	r3, [sp, #4]
    8658:	e2832004 	add	r2, r3, #4
    865c:	e58d2004 	str	r2, [sp, #4]
    8660:	e5935000 	ldr	r5, [r3]
    8664:	e5d50000 	ldrb	r0, [r5]
    8668:	e3500000 	cmp	r0, #0
    866c:	0a00000f 	beq	86b0 <printk+0x198>
    8670:	eb000037 	bl	8754 <uart_put_byte>
    8674:	e5f50001 	ldrb	r0, [r5, #1]!
    8678:	e3500000 	cmp	r0, #0
    867c:	1afffffb 	bne	8670 <printk+0x158>
    8680:	ea00000a 	b	86b0 <printk+0x198>
    8684:	e59d3004 	ldr	r3, [sp, #4]
    8688:	e2832004 	add	r2, r3, #4
    868c:	e58d2004 	str	r2, [sp, #4]
    8690:	e5d30000 	ldrb	r0, [r3]
    8694:	eb00002e 	bl	8754 <uart_put_byte>
    8698:	ea000004 	b	86b0 <printk+0x198>
    869c:	e3a00025 	mov	r0, #37	; 0x25
    86a0:	eb00002b 	bl	8754 <uart_put_byte>
    86a4:	ea000001 	b	86b0 <printk+0x198>
    86a8:	e3e00000 	mvn	r0, #0
    86ac:	ea000003 	b	86c0 <printk+0x1a8>
    86b0:	e2844002 	add	r4, r4, #2
    86b4:	e5d40000 	ldrb	r0, [r4]
    86b8:	e3500000 	cmp	r0, #0
    86bc:	1affff9f 	bne	8540 <printk+0x28>
    86c0:	e28dd008 	add	sp, sp, #8
    86c4:	e8bd41f0 	pop	{r4, r5, r6, r7, r8, lr}
    86c8:	e28dd010 	add	sp, sp, #16
    86cc:	e12fff1e 	bx	lr

000086d0 <uart_init>:
    86d0:	e92d4008 	push	{r3, lr}
    86d4:	e3a0000f 	mov	r0, #15
    86d8:	e3a01000 	mov	r1, #0
    86dc:	ebfffee6 	bl	827c <gpio_set_pull>
    86e0:	e3a0000e 	mov	r0, #14
    86e4:	e3a01000 	mov	r1, #0
    86e8:	ebfffee3 	bl	827c <gpio_set_pull>
    86ec:	e3a0000f 	mov	r0, #15
    86f0:	e3a01002 	mov	r1, #2
    86f4:	ebfffe56 	bl	8054 <gpio_config>
    86f8:	e3a0000e 	mov	r0, #14
    86fc:	e3a01002 	mov	r1, #2
    8700:	ebfffe53 	bl	8054 <gpio_config>
    8704:	e3a03a05 	mov	r3, #20480	; 0x5000
    8708:	e3433f21 	movt	r3, #16161	; 0x3f21
    870c:	e3a02001 	mov	r2, #1
    8710:	e5832004 	str	r2, [r3, #4]
    8714:	e3a02000 	mov	r2, #0
    8718:	e5832044 	str	r2, [r3, #68]	; 0x44
    871c:	e5932048 	ldr	r2, [r3, #72]	; 0x48
    8720:	e3822006 	orr	r2, r2, #6
    8724:	e5832048 	str	r2, [r3, #72]	; 0x48
    8728:	e3a02003 	mov	r2, #3
    872c:	e583204c 	str	r2, [r3, #76]	; 0x4c
    8730:	e5832060 	str	r2, [r3, #96]	; 0x60
    8734:	e300210e 	movw	r2, #270	; 0x10e
    8738:	e5832068 	str	r2, [r3, #104]	; 0x68
    873c:	e8bd8008 	pop	{r3, pc}

00008740 <uart_close>:
    8740:	e3a03a05 	mov	r3, #20480	; 0x5000
    8744:	e3433f21 	movt	r3, #16161	; 0x3f21
    8748:	e3a02000 	mov	r2, #0
    874c:	e5832004 	str	r2, [r3, #4]
    8750:	e12fff1e 	bx	lr

00008754 <uart_put_byte>:
    8754:	e3a02a05 	mov	r2, #20480	; 0x5000
    8758:	e3432f21 	movt	r2, #16161	; 0x3f21
    875c:	e5923048 	ldr	r3, [r2, #72]	; 0x48
    8760:	e2033006 	and	r3, r3, #6
    8764:	e3530002 	cmp	r3, #2
    8768:	1afffffb 	bne	875c <uart_put_byte+0x8>
    876c:	e3a03a05 	mov	r3, #20480	; 0x5000
    8770:	e3433f21 	movt	r3, #16161	; 0x3f21
    8774:	e5830040 	str	r0, [r3, #64]	; 0x40
    8778:	e12fff1e 	bx	lr

0000877c <uart_get_byte>:
    877c:	e3a02a05 	mov	r2, #20480	; 0x5000
    8780:	e3432f21 	movt	r2, #16161	; 0x3f21
    8784:	e5923048 	ldr	r3, [r2, #72]	; 0x48
    8788:	e2033006 	and	r3, r3, #6
    878c:	e3530004 	cmp	r3, #4
    8790:	1afffffb 	bne	8784 <uart_get_byte+0x8>
    8794:	e3a03a05 	mov	r3, #20480	; 0x5000
    8798:	e3433f21 	movt	r3, #16161	; 0x3f21
    879c:	e5930040 	ldr	r0, [r3, #64]	; 0x40
    87a0:	e6ef0070 	uxtb	r0, r0
    87a4:	e12fff1e 	bx	lr

000087a8 <i2c_master_init>:
    87a8:	e92d4008 	push	{r3, lr}
    87ac:	e3a00002 	mov	r0, #2
    87b0:	e3a01000 	mov	r1, #0
    87b4:	ebfffeb0 	bl	827c <gpio_set_pull>
    87b8:	e3a00003 	mov	r0, #3
    87bc:	e3a01000 	mov	r1, #0
    87c0:	ebfffead 	bl	827c <gpio_set_pull>
    87c4:	e3a00002 	mov	r0, #2
    87c8:	e3a01004 	mov	r1, #4
    87cc:	ebfffe20 	bl	8054 <gpio_config>
    87d0:	e3a00003 	mov	r0, #3
    87d4:	e3a01004 	mov	r1, #4
    87d8:	ebfffe1d 	bl	8054 <gpio_config>
    87dc:	e3a03901 	mov	r3, #16384	; 0x4000
    87e0:	e3433f80 	movt	r3, #16256	; 0x3f80
    87e4:	e3a02902 	mov	r2, #32768	; 0x8000
    87e8:	e5832000 	str	r2, [r3]
    87ec:	e5932000 	ldr	r2, [r3]
    87f0:	e3822030 	orr	r2, r2, #48	; 0x30
    87f4:	e5832000 	str	r2, [r3]
    87f8:	e8bd8008 	pop	{r3, pc}

000087fc <i2c_master_write>:
    87fc:	e3510010 	cmp	r1, #16
    8800:	8a000022 	bhi	8890 <i2c_master_write+0x94>
    8804:	e3120080 	tst	r2, #128	; 0x80
    8808:	1a000022 	bne	8898 <i2c_master_write+0x9c>
    880c:	e3a03901 	mov	r3, #16384	; 0x4000
    8810:	e3433f80 	movt	r3, #16256	; 0x3f80
    8814:	e5831008 	str	r1, [r3, #8]
    8818:	e583200c 	str	r2, [r3, #12]
    881c:	e5932000 	ldr	r2, [r3]
    8820:	e3822030 	orr	r2, r2, #48	; 0x30
    8824:	e5832000 	str	r2, [r3]
    8828:	e3510000 	cmp	r1, #0
    882c:	da000007 	ble	8850 <i2c_master_write+0x54>
    8830:	e1a03000 	mov	r3, r0
    8834:	e0800001 	add	r0, r0, r1
    8838:	e3a01901 	mov	r1, #16384	; 0x4000
    883c:	e3431f80 	movt	r1, #16256	; 0x3f80
    8840:	e4d32001 	ldrb	r2, [r3], #1
    8844:	e5812010 	str	r2, [r1, #16]
    8848:	e1530000 	cmp	r3, r0
    884c:	1afffffb 	bne	8840 <i2c_master_write+0x44>
    8850:	e3a03901 	mov	r3, #16384	; 0x4000
    8854:	e3433f80 	movt	r3, #16256	; 0x3f80
    8858:	e3082080 	movw	r2, #32896	; 0x8080
    885c:	e5832000 	str	r2, [r3]
    8860:	e3a02901 	mov	r2, #16384	; 0x4000
    8864:	e3432f80 	movt	r2, #16256	; 0x3f80
    8868:	e5923004 	ldr	r3, [r2, #4]
    886c:	e3130002 	tst	r3, #2
    8870:	0afffffc 	beq	8868 <i2c_master_write+0x6c>
    8874:	e3a03901 	mov	r3, #16384	; 0x4000
    8878:	e3433f80 	movt	r3, #16256	; 0x3f80
    887c:	e5932004 	ldr	r2, [r3, #4]
    8880:	e3822002 	orr	r2, r2, #2
    8884:	e5832004 	str	r2, [r3, #4]
    8888:	e3a00000 	mov	r0, #0
    888c:	e12fff1e 	bx	lr
    8890:	e3a000ff 	mov	r0, #255	; 0xff
    8894:	e12fff1e 	bx	lr
    8898:	e3a000ff 	mov	r0, #255	; 0xff
    889c:	e12fff1e 	bx	lr

000088a0 <i2c_master_read>:
    88a0:	e3510010 	cmp	r1, #16
    88a4:	8a000020 	bhi	892c <i2c_master_read+0x8c>
    88a8:	e3120080 	tst	r2, #128	; 0x80
    88ac:	1a000020 	bne	8934 <i2c_master_read+0x94>
    88b0:	e3a03901 	mov	r3, #16384	; 0x4000
    88b4:	e3433f80 	movt	r3, #16256	; 0x3f80
    88b8:	e5831008 	str	r1, [r3, #8]
    88bc:	e583200c 	str	r2, [r3, #12]
    88c0:	e5932000 	ldr	r2, [r3]
    88c4:	e3822030 	orr	r2, r2, #48	; 0x30
    88c8:	e5832000 	str	r2, [r3]
    88cc:	e3082081 	movw	r2, #32897	; 0x8081
    88d0:	e5832000 	str	r2, [r3]
    88d4:	e3a02901 	mov	r2, #16384	; 0x4000
    88d8:	e3432f80 	movt	r2, #16256	; 0x3f80
    88dc:	e5923004 	ldr	r3, [r2, #4]
    88e0:	e3130002 	tst	r3, #2
    88e4:	0afffffc 	beq	88dc <i2c_master_read+0x3c>
    88e8:	e3510000 	cmp	r1, #0
    88ec:	da000007 	ble	8910 <i2c_master_read+0x70>
    88f0:	e1a03000 	mov	r3, r0
    88f4:	e0800001 	add	r0, r0, r1
    88f8:	e3a0c901 	mov	ip, #16384	; 0x4000
    88fc:	e343cf80 	movt	ip, #16256	; 0x3f80
    8900:	e59c2010 	ldr	r2, [ip, #16]
    8904:	e4c32001 	strb	r2, [r3], #1
    8908:	e1530000 	cmp	r3, r0
    890c:	1afffffb 	bne	8900 <i2c_master_read+0x60>
    8910:	e3a03901 	mov	r3, #16384	; 0x4000
    8914:	e3433f80 	movt	r3, #16256	; 0x3f80
    8918:	e5932004 	ldr	r2, [r3, #4]
    891c:	e3822002 	orr	r2, r2, #2
    8920:	e5832004 	str	r2, [r3, #4]
    8924:	e6ef0071 	uxtb	r0, r1
    8928:	e12fff1e 	bx	lr
    892c:	e3a000ff 	mov	r0, #255	; 0xff
    8930:	e12fff1e 	bx	lr
    8934:	e3a000ff 	mov	r0, #255	; 0xff
    8938:	e12fff1e 	bx	lr

0000893c <adc_init>:
    893c:	e92d4008 	push	{r3, lr}
    8940:	e30005dc 	movw	r0, #1500	; 0x5dc
    8944:	ebffff97 	bl	87a8 <i2c_master_init>
    8948:	e8bd8008 	pop	{r3, pc}

0000894c <adc_read>:
    894c:	e52de004 	push	{lr}		; (str lr, [sp, #-4]!)
    8950:	e24dd014 	sub	sp, sp, #20
    8954:	e3500000 	cmp	r0, #0
    8958:	1a00000a 	bne	8988 <adc_read+0x3c>
    895c:	e3093014 	movw	r3, #36884	; 0x9014
    8960:	e3403000 	movt	r3, #0
    8964:	e1d320b0 	ldrh	r2, [r3]
    8968:	e5d33002 	ldrb	r3, [r3, #2]
    896c:	e1cd20b4 	strh	r2, [sp, #4]
    8970:	e5cd3006 	strb	r3, [sp, #6]
    8974:	e28d0004 	add	r0, sp, #4
    8978:	e3a01003 	mov	r1, #3
    897c:	e3a02049 	mov	r2, #73	; 0x49
    8980:	ebffff9d 	bl	87fc <i2c_master_write>
    8984:	ea00000c 	b	89bc <adc_read+0x70>
    8988:	e3500001 	cmp	r0, #1
    898c:	130f0fff 	movwne	r0, #65535	; 0xffff
    8990:	1a000018 	bne	89f8 <adc_read+0xac>
    8994:	e3093014 	movw	r3, #36884	; 0x9014
    8998:	e3403000 	movt	r3, #0
    899c:	e1f320b4 	ldrh	r2, [r3, #4]!
    89a0:	e5d33002 	ldrb	r3, [r3, #2]
    89a4:	e1cd20b4 	strh	r2, [sp, #4]
    89a8:	e5cd3006 	strb	r3, [sp, #6]
    89ac:	e28d0004 	add	r0, sp, #4
    89b0:	e3a01003 	mov	r1, #3
    89b4:	e3a02049 	mov	r2, #73	; 0x49
    89b8:	ebffff8f 	bl	87fc <i2c_master_write>
    89bc:	e28d0010 	add	r0, sp, #16
    89c0:	e3a03000 	mov	r3, #0
    89c4:	e5603004 	strb	r3, [r0, #-4]!
    89c8:	e3a01001 	mov	r1, #1
    89cc:	e3a02049 	mov	r2, #73	; 0x49
    89d0:	ebffff89 	bl	87fc <i2c_master_write>
    89d4:	e28d0008 	add	r0, sp, #8
    89d8:	e3a01002 	mov	r1, #2
    89dc:	e3a02049 	mov	r2, #73	; 0x49
    89e0:	ebffffae 	bl	88a0 <i2c_master_read>
    89e4:	e5dd0008 	ldrb	r0, [sp, #8]
    89e8:	e5dd3009 	ldrb	r3, [sp, #9]
    89ec:	e1a03223 	lsr	r3, r3, #4
    89f0:	e0830200 	add	r0, r3, r0, lsl #4
    89f4:	eaffffff 	b	89f8 <adc_read+0xac>
    89f8:	e28dd014 	add	sp, sp, #20
    89fc:	e49df004 	pop	{pc}		; (ldr pc, [sp], #4)

00008a00 <delay_cycles>:
    8a00:	e2500001 	subs	r0, r0, #1
    8a04:	1afffffd 	bne	8a00 <delay_cycles>
    8a08:	e1a0f00e 	mov	pc, lr

00008a0c <read_cpsr>:
    8a0c:	e10f0000 	mrs	r0, CPSR
    8a10:	e1a0f00e 	mov	pc, lr

00008a14 <write_cpsr>:
    8a14:	e129f000 	msr	CPSR_fc, r0
    8a18:	e1a0f00e 	mov	pc, lr

00008a1c <disable_interrupts>:
    8a1c:	e10f0000 	mrs	r0, CPSR
    8a20:	e3a01d07 	mov	r1, #448	; 0x1c0
    8a24:	e1800001 	orr	r0, r0, r1
    8a28:	e129f000 	msr	CPSR_fc, r0
    8a2c:	e1a0f00e 	mov	pc, lr

00008a30 <enable_interrupts>:
    8a30:	e10f0000 	mrs	r0, CPSR
    8a34:	e3a01d07 	mov	r1, #448	; 0x1c0
    8a38:	e1c00001 	bic	r0, r0, r1
    8a3c:	e129f000 	msr	CPSR_fc, r0
    8a40:	e1a0f00e 	mov	pc, lr

00008a44 <__aeabi_uldivmod>:
    8a44:	e3530000 	cmp	r3, #0
    8a48:	03520000 	cmpeq	r2, #0
    8a4c:	1a000004 	bne	8a64 <__aeabi_uldivmod+0x20>
    8a50:	e3510000 	cmp	r1, #0
    8a54:	03500000 	cmpeq	r0, #0
    8a58:	13e01000 	mvnne	r1, #0
    8a5c:	13e00000 	mvnne	r0, #0
    8a60:	ea000027 	b	8b04 <__aeabi_idiv0>
    8a64:	e24dd008 	sub	sp, sp, #8
    8a68:	e92d6000 	push	{sp, lr}
    8a6c:	eb000014 	bl	8ac4 <__gnu_uldivmod_helper>
    8a70:	e59de004 	ldr	lr, [sp, #4]
    8a74:	e28dd008 	add	sp, sp, #8
    8a78:	e8bd000c 	pop	{r2, r3}
    8a7c:	e12fff1e 	bx	lr

00008a80 <__gnu_ldivmod_helper>:
    8a80:	e92d47f0 	push	{r4, r5, r6, r7, r8, r9, sl, lr}
    8a84:	e59d6020 	ldr	r6, [sp, #32]
    8a88:	e1a07002 	mov	r7, r2
    8a8c:	e1a0a003 	mov	sl, r3
    8a90:	e1a04000 	mov	r4, r0
    8a94:	e1a05001 	mov	r5, r1
    8a98:	eb00001a 	bl	8b08 <__divdi3>
    8a9c:	e1a03000 	mov	r3, r0
    8aa0:	e0020197 	mul	r2, r7, r1
    8aa4:	e0898097 	umull	r8, r9, r7, r0
    8aa8:	e023239a 	mla	r3, sl, r3, r2
    8aac:	e0544008 	subs	r4, r4, r8
    8ab0:	e0839009 	add	r9, r3, r9
    8ab4:	e0c55009 	sbc	r5, r5, r9
    8ab8:	e8860030 	stm	r6, {r4, r5}
    8abc:	e8bd47f0 	pop	{r4, r5, r6, r7, r8, r9, sl, lr}
    8ac0:	e12fff1e 	bx	lr

00008ac4 <__gnu_uldivmod_helper>:
    8ac4:	e92d41f0 	push	{r4, r5, r6, r7, r8, lr}
    8ac8:	e59d5018 	ldr	r5, [sp, #24]
    8acc:	e1a04002 	mov	r4, r2
    8ad0:	e1a08003 	mov	r8, r3
    8ad4:	e1a06000 	mov	r6, r0
    8ad8:	e1a07001 	mov	r7, r1
    8adc:	eb000067 	bl	8c80 <__udivdi3>
    8ae0:	e0080890 	mul	r8, r0, r8
    8ae4:	e0832490 	umull	r2, r3, r0, r4
    8ae8:	e0248491 	mla	r4, r1, r4, r8
    8aec:	e0566002 	subs	r6, r6, r2
    8af0:	e0843003 	add	r3, r4, r3
    8af4:	e0c77003 	sbc	r7, r7, r3
    8af8:	e88500c0 	stm	r5, {r6, r7}
    8afc:	e8bd41f0 	pop	{r4, r5, r6, r7, r8, lr}
    8b00:	e12fff1e 	bx	lr

00008b04 <__aeabi_idiv0>:
    8b04:	e12fff1e 	bx	lr

00008b08 <__divdi3>:
    8b08:	e3510000 	cmp	r1, #0
    8b0c:	e92d4ff8 	push	{r3, r4, r5, r6, r7, r8, r9, sl, fp, lr}
    8b10:	a1a04000 	movge	r4, r0
    8b14:	a1a05001 	movge	r5, r1
    8b18:	a3a0a000 	movge	sl, #0
    8b1c:	ba000053 	blt	8c70 <__divdi3+0x168>
    8b20:	e3530000 	cmp	r3, #0
    8b24:	a1a08002 	movge	r8, r2
    8b28:	a1a09003 	movge	r9, r3
    8b2c:	ba00004b 	blt	8c60 <__divdi3+0x158>
    8b30:	e1550009 	cmp	r5, r9
    8b34:	01540008 	cmpeq	r4, r8
    8b38:	33a02000 	movcc	r2, #0
    8b3c:	33a03000 	movcc	r3, #0
    8b40:	3a00003b 	bcc	8c34 <__divdi3+0x12c>
    8b44:	e1a01009 	mov	r1, r9
    8b48:	e1a00008 	mov	r0, r8
    8b4c:	eb000093 	bl	8da0 <__clzdi2>
    8b50:	e1a01005 	mov	r1, r5
    8b54:	e1a0b000 	mov	fp, r0
    8b58:	e1a00004 	mov	r0, r4
    8b5c:	eb00008f 	bl	8da0 <__clzdi2>
    8b60:	e060000b 	rsb	r0, r0, fp
    8b64:	e240e020 	sub	lr, r0, #32
    8b68:	e1a07019 	lsl	r7, r9, r0
    8b6c:	e1877e18 	orr	r7, r7, r8, lsl lr
    8b70:	e260c020 	rsb	ip, r0, #32
    8b74:	e1877c38 	orr	r7, r7, r8, lsr ip
    8b78:	e1550007 	cmp	r5, r7
    8b7c:	e1a06018 	lsl	r6, r8, r0
    8b80:	01540006 	cmpeq	r4, r6
    8b84:	e1a01000 	mov	r1, r0
    8b88:	33a02000 	movcc	r2, #0
    8b8c:	33a03000 	movcc	r3, #0
    8b90:	3a000005 	bcc	8bac <__divdi3+0xa4>
    8b94:	e3a08001 	mov	r8, #1
    8b98:	e0544006 	subs	r4, r4, r6
    8b9c:	e1a03e18 	lsl	r3, r8, lr
    8ba0:	e1833c38 	orr	r3, r3, r8, lsr ip
    8ba4:	e0c55007 	sbc	r5, r5, r7
    8ba8:	e1a02018 	lsl	r2, r8, r0
    8bac:	e3500000 	cmp	r0, #0
    8bb0:	0a00001f 	beq	8c34 <__divdi3+0x12c>
    8bb4:	e1b070a7 	lsrs	r7, r7, #1
    8bb8:	e1a06066 	rrx	r6, r6
    8bbc:	ea000007 	b	8be0 <__divdi3+0xd8>
    8bc0:	e0544006 	subs	r4, r4, r6
    8bc4:	e0c55007 	sbc	r5, r5, r7
    8bc8:	e0944004 	adds	r4, r4, r4
    8bcc:	e0a55005 	adc	r5, r5, r5
    8bd0:	e2944001 	adds	r4, r4, #1
    8bd4:	e2a55000 	adc	r5, r5, #0
    8bd8:	e2500001 	subs	r0, r0, #1
    8bdc:	0a000006 	beq	8bfc <__divdi3+0xf4>
    8be0:	e1570005 	cmp	r7, r5
    8be4:	01560004 	cmpeq	r6, r4
    8be8:	9afffff4 	bls	8bc0 <__divdi3+0xb8>
    8bec:	e0944004 	adds	r4, r4, r4
    8bf0:	e0a55005 	adc	r5, r5, r5
    8bf4:	e2500001 	subs	r0, r0, #1
    8bf8:	1afffff8 	bne	8be0 <__divdi3+0xd8>
    8bfc:	e261c020 	rsb	ip, r1, #32
    8c00:	e1a00134 	lsr	r0, r4, r1
    8c04:	e0922004 	adds	r2, r2, r4
    8c08:	e241e020 	sub	lr, r1, #32
    8c0c:	e1800c15 	orr	r0, r0, r5, lsl ip
    8c10:	e1a04135 	lsr	r4, r5, r1
    8c14:	e1800e35 	orr	r0, r0, r5, lsr lr
    8c18:	e1a07114 	lsl	r7, r4, r1
    8c1c:	e1877e10 	orr	r7, r7, r0, lsl lr
    8c20:	e1a06110 	lsl	r6, r0, r1
    8c24:	e0a33005 	adc	r3, r3, r5
    8c28:	e1877c30 	orr	r7, r7, r0, lsr ip
    8c2c:	e0522006 	subs	r2, r2, r6
    8c30:	e0c33007 	sbc	r3, r3, r7
    8c34:	e29a0000 	adds	r0, sl, #0
    8c38:	13a00001 	movne	r0, #1
    8c3c:	e3a01000 	mov	r1, #0
    8c40:	e2704000 	rsbs	r4, r0, #0
    8c44:	e2e15000 	rsc	r5, r1, #0
    8c48:	e0222004 	eor	r2, r2, r4
    8c4c:	e0233005 	eor	r3, r3, r5
    8c50:	e0900002 	adds	r0, r0, r2
    8c54:	e0a11003 	adc	r1, r1, r3
    8c58:	e8bd4ff8 	pop	{r3, r4, r5, r6, r7, r8, r9, sl, fp, lr}
    8c5c:	e12fff1e 	bx	lr
    8c60:	e2728000 	rsbs	r8, r2, #0
    8c64:	e1e0a00a 	mvn	sl, sl
    8c68:	e2e39000 	rsc	r9, r3, #0
    8c6c:	eaffffaf 	b	8b30 <__divdi3+0x28>
    8c70:	e2704000 	rsbs	r4, r0, #0
    8c74:	e2e15000 	rsc	r5, r1, #0
    8c78:	e3e0a000 	mvn	sl, #0
    8c7c:	eaffffa7 	b	8b20 <__divdi3+0x18>

00008c80 <__udivdi3>:
    8c80:	e1510003 	cmp	r1, r3
    8c84:	01500002 	cmpeq	r0, r2
    8c88:	e92d47f0 	push	{r4, r5, r6, r7, r8, r9, sl, lr}
    8c8c:	e1a04000 	mov	r4, r0
    8c90:	e1a05001 	mov	r5, r1
    8c94:	e1a08002 	mov	r8, r2
    8c98:	e1a09003 	mov	r9, r3
    8c9c:	33a00000 	movcc	r0, #0
    8ca0:	33a01000 	movcc	r1, #0
    8ca4:	3a00003b 	bcc	8d98 <__udivdi3+0x118>
    8ca8:	e1a01003 	mov	r1, r3
    8cac:	e1a00002 	mov	r0, r2
    8cb0:	eb00003a 	bl	8da0 <__clzdi2>
    8cb4:	e1a01005 	mov	r1, r5
    8cb8:	e1a0a000 	mov	sl, r0
    8cbc:	e1a00004 	mov	r0, r4
    8cc0:	eb000036 	bl	8da0 <__clzdi2>
    8cc4:	e060300a 	rsb	r3, r0, sl
    8cc8:	e243e020 	sub	lr, r3, #32
    8ccc:	e1a07319 	lsl	r7, r9, r3
    8cd0:	e1877e18 	orr	r7, r7, r8, lsl lr
    8cd4:	e263c020 	rsb	ip, r3, #32
    8cd8:	e1877c38 	orr	r7, r7, r8, lsr ip
    8cdc:	e1550007 	cmp	r5, r7
    8ce0:	e1a06318 	lsl	r6, r8, r3
    8ce4:	01540006 	cmpeq	r4, r6
    8ce8:	e1a02003 	mov	r2, r3
    8cec:	33a00000 	movcc	r0, #0
    8cf0:	33a01000 	movcc	r1, #0
    8cf4:	3a000005 	bcc	8d10 <__udivdi3+0x90>
    8cf8:	e3a08001 	mov	r8, #1
    8cfc:	e0544006 	subs	r4, r4, r6
    8d00:	e1a01e18 	lsl	r1, r8, lr
    8d04:	e1811c38 	orr	r1, r1, r8, lsr ip
    8d08:	e0c55007 	sbc	r5, r5, r7
    8d0c:	e1a00318 	lsl	r0, r8, r3
    8d10:	e3530000 	cmp	r3, #0
    8d14:	0a00001f 	beq	8d98 <__udivdi3+0x118>
    8d18:	e1b070a7 	lsrs	r7, r7, #1
    8d1c:	e1a06066 	rrx	r6, r6
    8d20:	ea000007 	b	8d44 <__udivdi3+0xc4>
    8d24:	e0544006 	subs	r4, r4, r6
    8d28:	e0c55007 	sbc	r5, r5, r7
    8d2c:	e0944004 	adds	r4, r4, r4
    8d30:	e0a55005 	adc	r5, r5, r5
    8d34:	e2944001 	adds	r4, r4, #1
    8d38:	e2a55000 	adc	r5, r5, #0
    8d3c:	e2533001 	subs	r3, r3, #1
    8d40:	0a000006 	beq	8d60 <__udivdi3+0xe0>
    8d44:	e1570005 	cmp	r7, r5
    8d48:	01560004 	cmpeq	r6, r4
    8d4c:	9afffff4 	bls	8d24 <__udivdi3+0xa4>
    8d50:	e0944004 	adds	r4, r4, r4
    8d54:	e0a55005 	adc	r5, r5, r5
    8d58:	e2533001 	subs	r3, r3, #1
    8d5c:	1afffff8 	bne	8d44 <__udivdi3+0xc4>
    8d60:	e0948000 	adds	r8, r4, r0
    8d64:	e0a59001 	adc	r9, r5, r1
    8d68:	e1a03234 	lsr	r3, r4, r2
    8d6c:	e2621020 	rsb	r1, r2, #32
    8d70:	e2420020 	sub	r0, r2, #32
    8d74:	e1833115 	orr	r3, r3, r5, lsl r1
    8d78:	e1a0c235 	lsr	ip, r5, r2
    8d7c:	e1833035 	orr	r3, r3, r5, lsr r0
    8d80:	e1a0721c 	lsl	r7, ip, r2
    8d84:	e1877013 	orr	r7, r7, r3, lsl r0
    8d88:	e1a06213 	lsl	r6, r3, r2
    8d8c:	e1877133 	orr	r7, r7, r3, lsr r1
    8d90:	e0580006 	subs	r0, r8, r6
    8d94:	e0c91007 	sbc	r1, r9, r7
    8d98:	e8bd47f0 	pop	{r4, r5, r6, r7, r8, r9, sl, lr}
    8d9c:	e12fff1e 	bx	lr

00008da0 <__clzdi2>:
    8da0:	e92d4010 	push	{r4, lr}
    8da4:	e3510000 	cmp	r1, #0
    8da8:	1a000002 	bne	8db8 <__clzdi2+0x18>
    8dac:	eb000005 	bl	8dc8 <__clzsi2>
    8db0:	e2800020 	add	r0, r0, #32
    8db4:	ea000001 	b	8dc0 <__clzdi2+0x20>
    8db8:	e1a00001 	mov	r0, r1
    8dbc:	eb000001 	bl	8dc8 <__clzsi2>
    8dc0:	e8bd4010 	pop	{r4, lr}
    8dc4:	e12fff1e 	bx	lr

00008dc8 <__clzsi2>:
    8dc8:	e3a0101c 	mov	r1, #28
    8dcc:	e3500801 	cmp	r0, #65536	; 0x10000
    8dd0:	21a00820 	lsrcs	r0, r0, #16
    8dd4:	22411010 	subcs	r1, r1, #16
    8dd8:	e3500c01 	cmp	r0, #256	; 0x100
    8ddc:	21a00420 	lsrcs	r0, r0, #8
    8de0:	22411008 	subcs	r1, r1, #8
    8de4:	e3500010 	cmp	r0, #16
    8de8:	21a00220 	lsrcs	r0, r0, #4
    8dec:	22411004 	subcs	r1, r1, #4
    8df0:	e28f2008 	add	r2, pc, #8
    8df4:	e7d20000 	ldrb	r0, [r2, r0]
    8df8:	e0800001 	add	r0, r0, r1
    8dfc:	e12fff1e 	bx	lr
    8e00:	02020304 	andeq	r0, r2, #4, 6	; 0x10000000
    8e04:	01010101 	tsteq	r1, r1, lsl #2
	...
